; Function Attrs: nounwind uwtable
define dso_local void @shutdown_state_save() local_unnamed_addr #0 {
  %1 = tail call i32 @pthread_mutex_lock(ptr noundef nonnull @state_save_lock) #6
  %.not = icmp eq i32 %1, 0
  br i1 %.not, label %4, label %2

2:                                                ; preds = %0
  %3 = tail call ptr @__errno_location() #7
  store i32 %1, ptr %3, align 4
  tail call void (ptr, ...) @fatal_abort(ptr noundef nonnull @.str, ptr noundef nonnull @__func__.shutdown_state_save) #8
  unreachable

4:                                                ; preds = %0
  store i1 true, ptr @run_save_thread, align 1
  %5 = tail call i32 @pthread_cond_broadcast(ptr noundef nonnull @state_save_cond) #6
  %.not8 = icmp eq i32 %5, 0
  br i1 %.not8, label %9, label %6

6:                                                ; preds = %4
  %7 = tail call ptr @__errno_location() #7
  store i32 %5, ptr %7, align 4
  %8 = tail call i32 (ptr, ...) @error(ptr noundef nonnull @.str.1, ptr noundef nonnull @.str.2, i32 noundef 125, ptr noundef nonnull @__func__.shutdown_state_save) #6
  br label %9

9:                                                ; preds = %6, %4
  %10 = tail call i32 @pthread_mutex_unlock(ptr noundef nonnull @state_save_lock) #6
  %.not9 = icmp eq i32 %10, 0
  br i1 %.not9, label %13, label %11

11:                                               ; preds = %9
  %12 = tail call ptr @__errno_location() #7
  store i32 %10, ptr %12, align 4
  tail call void (ptr, ...) @fatal_abort(ptr noundef nonnull @.str.3, ptr noundef nonnull @__func__.shutdown_state_save) #8
  unreachable

13:                                               ; preds = %9
  ret void
}